Certificate:
    Data:
        Version: 1 (0x0)
        Serial Number:
            40:5e:f7:16:85:2c:73:00:5a:c4:52:4b:22:c3:cd:b3:1f:07:4f:f0
        Signature Algorithm: sha512WithRSAEncryption
        Issuer: CN = C2X Control Center2019, C = DE, O = Siemens Mobility GmbH, OU = MO MM ITS TS, emailAddress = c2x@siemens.com
        Validity
            Not Before: Jan 11 14:13:44 2019 GMT
            Not After : Jan  8 14:13:44 2029 GMT
        Subject: CN = xfer, C = DE, O = Siemens Mobility GmbH, OU = MO MM ITS TS, emailAddress = c2x@siemens.com
        Subject Public Key Info:
            Public Key Algorithm: rsaEncryption
                RSA Public-Key: (2048 bit)
                Modulus:
                    00:e8:d2:1d:06:fd:ca:39:f2:94:38:d8:7a:c0:db:
                    dd:9a:f2:8d:0a:50:e9:67:42:dd:0b:54:32:b8:97:
                    2d:1a:ef:bf:bf:e6:1f:10:c5:24:2e:ba:c4:2d:5e:
                    49:e3:8f:92:f8:7d:1f:3d:a9:1a:f0:45:7d:00:15:
                    32:39:85:15:86:b2:42:18:38:e6:04:65:04:96:02:
                    78:b1:ec:f3:64:f1:c5:98:43:df:55:a3:34:d5:a5:
                    62:f9:08:6b:e6:59:6a:49:e9:a0:05:23:28:4a:60:
                    6e:75:ef:b4:90:ef:81:f7:bf:d8:ac:a3:a1:5f:22:
                    10:aa:ae:0b:eb:27:1d:10:cb:6e:70:bd:a0:9e:ea:
                    6d:f4:38:c0:b7:47:ac:84:a1:a9:a7:37:e2:91:67:
                    5d:a0:6d:34:56:f7:b2:c1:ef:a8:63:7e:a5:3a:05:
                    4f:7b:ce:4f:5e:ba:a2:71:09:90:25:7a:10:7b:5d:
                    e0:4e:d3:0a:4b:37:66:84:41:6f:05:bd:43:b3:ce:
                    49:6d:00:31:3d:a8:8f:97:bb:0c:39:9b:25:32:21:
                    76:d0:e9:d9:30:f7:26:91:e5:b1:d5:85:36:1e:f9:
                    2a:16:89:44:d3:f0:63:25:03:9f:a5:47:49:66:0f:
                    95:70:ba:90:cd:da:0d:1c:fc:3f:90:7a:b6:48:62:
                    71:ef
                Exponent: 65537 (0x10001)
    Signature Algorithm: sha512WithRSAEncryption
         88:b6:ca:75:d7:94:59:43:9b:1d:53:16:90:68:d9:46:82:e6:
         e3:78:14:90:05:94:77:ab:23:26:b0:98:68:84:e7:b3:16:02:
         5e:a0:41:3c:e1:d3:56:bc:b6:3e:75:22:8f:e7:57:93:60:1f:
         57:44:bf:45:b3:c9:ce:c5:59:67:7b:f4:ac:ce:05:8c:55:e4:
         83:5f:f6:54:b1:c9:1f:27:cf:b5:61:b6:7f:f5:f8:21:a4:57:
         74:4a:de:82:bb:83:93:10:25:f2:85:e0:2f:ca:de:8a:0e:8d:
         9d:b0:8d:5c:be:34:aa:f5:0d:e6:04:e0:4b:f7:46:69:be:26:
         88:92:26:b8:15:fe:40:18:60:40:9e:94:de:93:9a:ae:16:92:
         7f:55:d2:cb:8c:db:a9:8b:a6:dd:03:08:1b:39:00:1a:47:9a:
         fd:a7:33:0e:81:8a:34:ec:14:7c:46:df:87:34:8d:d5:ec:9c:
         0f:22:1a:66:ca:44:18:28:7e:70:8d:cf:b4:d0:c4:3c:0c:0b:
         06:a5:e1:d6:b6:e1:d7:93:06:e8:09:3f:f1:fb:36:91:fd:b3:
         05:45:88:82:f8:81:19:b3:3e:0d:43:e3:d6:b8:e5:de:ce:64:
         be:26:e4:c9:22:50:5d:3e:54:e4:86:50:b1:84:b7:29:9f:77:
         d3:bc:24:e6
-----BEGIN CERTIFICATE-----
MIIDgDCCAmgCFEBe9xaFLHMAWsRSSyLDzbMfB0/wMA0GCSqGSIb3DQEBDQUAMIGF
MR8wHQYDVQQDDBZDMlggQ29udHJvbCBDZW50ZXIyMDE5MQswCQYDVQQGEwJERTEe
MBwGA1UECgwVU2llbWVucyBNb2JpbGl0eSBHbWJIMRUwEwYDVQQLDAxNTyBNTSBJ
VFMgVFMxHjAcBgkqhkiG9w0BCQEWD2MyeEBzaWVtZW5zLmNvbTAeFw0xOTAxMTEx
NDEzNDRaFw0yOTAxMDgxNDEzNDRaMHMxDTALBgNVBAMMBHhmZXIxCzAJBgNVBAYT
AkRFMR4wHAYDVQQKDBVTaWVtZW5zIE1vYmlsaXR5IEdtYkgxFTATBgNVBAsMDE1P
IE1NIElUUyBUUzEeMBwGCSqGSIb3DQEJARYPYzJ4QHNpZW1lbnMuY29tMIIBIjAN
BgkqhkiG9w0BAQEFAAOCAQ8AMIIBCgKCAQEA6NIdBv3KOfKUONh6wNvdmvKNClDp
Z0LdC1QyuJctGu+/v+YfEMUkLrrELV5J44+S+H0fPaka8EV9ABUyOYUVhrJCGDjm
BGUElgJ4sezzZPHFmEPfVaM01aVi+Qhr5llqSemgBSMoSmBude+0kO+B97/YrKOh
XyIQqq4L6ycdEMtucL2gnupt9DjAt0eshKGppzfikWddoG00Vveywe+oY36lOgVP
e85PXrqicQmQJXoQe13gTtMKSzdmhEFvBb1Ds85JbQAxPaiPl7sMOZslMiF20OnZ
MPcmkeWx1YU2HvkqFolE0/BjJQOfpUdJZg+VcLqQzdoNHPw/kHq2SGJx7wIDAQAB
MA0GCSqGSIb3DQEBDQUAA4IBAQCItsp115RZQ5sdUxaQaNlGgubjeBSQBZR3qyMm
sJhohOezFgJeoEE84dNWvLY+dSKP51eTYB9XRL9Fs8nOxVlne/SszgWMVeSDX/ZU
sckfJ8+1YbZ/9fghpFd0St6Cu4OTECXyheAvyt6KDo2dsI1cvjSq9Q3mBOBL90Zp
viaIkia4Ff5AGGBAnpTek5quFpJ/VdLLjNupi6bdAwgbOQAaR5r9pzMOgYo07BR8
Rt+HNI3V7JwPIhpmykQYKH5wjc+00MQ8DAsGpeHWtuHXkwboCT/x+zaR/bMFRYiC
+IEZsz4NQ+PWuOXezmS+JuTJIlBdPlTkhlCxhLcpn3fTvCTm
-----END CERTIFICATE-----
